target datalayout = "e-m:e-p270:32:32-p271:32:32-p272:64:64-i64:64-i128:128-f80:128-n8:16:32:64-S128"
target triple = "x86_64-pc-linux-gnu"

%struct.expert_field = type { i32, i32 }
%struct._asn1_ctx_t = type { i32, i32, i8, ptr, ptr, ptr, ptr, ptr, %struct.anon, %struct.anon.2, %struct.anon.3, ptr }
%struct.anon = type { i32, i8, i8, i8, ptr, ptr, i32, i32, ptr, ptr, ptr, %union.anon }
%union.anon = type { %struct.anon.0 }
%struct.anon.0 = type { ptr }
%struct.anon.2 = type { ptr, ptr, ptr }
%struct.anon.3 = type { i32, i8, ptr, i32, i32, ptr, ptr, ptr, %union.anon.4 }
%union.anon.4 = type { %struct.anon.5 }
%struct.anon.5 = type { ptr }
%struct._proto_node = type { ptr, ptr, ptr, ptr, ptr, ptr }
%struct.field_info = type { ptr, i32, i32, i32, i32, i32, i32, ptr, ptr, ptr, i32, i32 }

@display_internal_oer_fields = internal global i32 0, align 4
@ei_oer_not_decoded_yet = internal global %struct.expert_field zeroinitializer, align 4
@.str.43 = private unnamed_addr constant [52 x i8] c"Length determinant: Long form %u octets not handled\00", align 1

; Function Attrs: nounwind uwtable
define internal void @proto_item_set_hidden(ptr noundef %0) #0 {
  %2 = alloca ptr, align 8
  store ptr %0, ptr %2, align 8
  %3 = load ptr, ptr %2, align 8
  %4 = icmp ne ptr %3, null
  br i1 %4, label %5, label %24

5:                                                ; preds = %1
  br label %6

6:                                                ; preds = %5
  %7 = load ptr, ptr %2, align 8
  %8 = getelementptr inbounds %struct._proto_node, ptr %7, i32 0, i32 4
  %9 = load ptr, ptr %8, align 8
  %10 = icmp ne ptr %9, null
  br i1 %10, label %11, label %22

11:                                               ; preds = %6
  %12 = load ptr, ptr %2, align 8
  %13 = getelementptr inbounds %struct._proto_node, ptr %12, i32 0, i32 4
  %14 = load ptr, ptr %13, align 8
  %15 = getelementptr inbounds %struct.field_info, ptr %14, i32 0, i32 6
  %16 = load i32, ptr %15, align 4
  %17 = or i32 %16, 1
  %18 = load ptr, ptr %2, align 8
  %19 = getelementptr inbounds %struct._proto_node, ptr %18, i32 0, i32 4
  %20 = load ptr, ptr %19, align 8
  %21 = getelementptr inbounds %struct.field_info, ptr %20, i32 0, i32 6
  store i32 %17, ptr %21, align 4
  br label %22

22:                                               ; preds = %11, %6
  br label %23

23:                                               ; preds = %22
  br label %24

24:                                               ; preds = %23, %1
  ret void
}

; Function Attrs: nounwind uwtable
define internal i32 @dissect_oer_length_determinant(ptr noundef %0, i32 noundef %1, ptr noundef %2, ptr noundef %3, i32 noundef %4, ptr noundef %5) #0 {
  %7 = alloca i32, align 4
  %8 = alloca ptr, align 8
  %9 = alloca i32, align 4
  %10 = alloca ptr, align 8
  %11 = alloca ptr, align 8
  %12 = alloca i32, align 4
  %13 = alloca ptr, align 8
  %14 = alloca ptr, align 8
  %15 = alloca i8, align 1
  %16 = alloca i8, align 1
  %17 = alloca i32, align 4
  store ptr %0, ptr %8, align 8
  store i32 %1, ptr %9, align 4
  store ptr %2, ptr %10, align 8
  store ptr %3, ptr %11, align 8
  store i32 %4, ptr %12, align 4
  store ptr %5, ptr %13, align 8
  %18 = load ptr, ptr %13, align 8
  %19 = icmp ne ptr %18, null
  br i1 %19, label %21, label %20

20:                                               ; preds = %6
  store ptr %17, ptr %13, align 8
  br label %21

21:                                               ; preds = %20, %6
  %22 = load ptr, ptr %13, align 8
  store i32 0, ptr %22, align 4
  %23 = load ptr, ptr %8, align 8
  %24 = load i32, ptr %9, align 4
  %25 = call zeroext i8 @tvb_get_guint8(ptr noundef %23, i32 noundef %24)
  store i8 %25, ptr %15, align 1
  %26 = load i8, ptr %15, align 1
  %27 = zext i8 %26 to i32
  %28 = and i32 %27, 128
  %29 = icmp eq i32 %28, 0
  br i1 %29, label %30, label %51

30:                                               ; preds = %21
  %31 = load i8, ptr %15, align 1
  %32 = zext i8 %31 to i32
  %33 = load ptr, ptr %13, align 8
  store i32 %32, ptr %33, align 4
  %34 = load i32, ptr %12, align 4
  %35 = icmp sgt i32 %34, 0
  br i1 %35, label %36, label %47

36:                                               ; preds = %30
  %37 = load ptr, ptr %11, align 8
  %38 = load i32, ptr %12, align 4
  %39 = load ptr, ptr %8, align 8
  %40 = load i32, ptr %9, align 4
  %41 = call ptr @proto_tree_add_item(ptr noundef %37, i32 noundef %38, ptr noundef %39, i32 noundef %40, i32 noundef 1, i32 noundef 0)
  store ptr %41, ptr %14, align 8
  %42 = load i32, ptr @display_internal_oer_fields, align 4
  %43 = icmp ne i32 %42, 0
  br i1 %43, label %46, label %44

44:                                               ; preds = %36
  %45 = load ptr, ptr %14, align 8
  call void @proto_item_set_hidden(ptr noundef %45)
  br label %46

46:                                               ; preds = %44, %36
  br label %47

47:                                               ; preds = %46, %30
  %48 = load i32, ptr %9, align 4
  %49 = add i32 %48, 1
  store i32 %49, ptr %9, align 4
  %50 = load i32, ptr %9, align 4
  store i32 %50, ptr %7, align 4
  br label %104

51:                                               ; preds = %21
  %52 = load i32, ptr %9, align 4
  %53 = add i32 %52, 1
  store i32 %53, ptr %9, align 4
  %54 = load i8, ptr %15, align 1
  %55 = zext i8 %54 to i32
  %56 = and i32 %55, 127
  %57 = trunc i32 %56 to i8
  store i8 %57, ptr %16, align 1
  %58 = load i8, ptr %16, align 1
  %59 = zext i8 %58 to i32
  switch i32 %59, label %90 [
    i32 1, label %60
    i32 2, label %68
    i32 3, label %76
    i32 4, label %83
  ]

60:                                               ; preds = %51
  %61 = load ptr, ptr %8, align 8
  %62 = load i32, ptr %9, align 4
  %63 = call zeroext i8 @tvb_get_guint8(ptr noundef %61, i32 noundef %62)
  %64 = zext i8 %63 to i32
  %65 = load ptr, ptr %13, align 8
  store i32 %64, ptr %65, align 4
  %66 = load i32, ptr %9, align 4
  %67 = add i32 %66, 1
  store i32 %67, ptr %9, align 4
  br label %102

68:                                               ; preds = %51
  %69 = load ptr, ptr %8, align 8
  %70 = load i32, ptr %9, align 4
  %71 = call zeroext i16 @tvb_get_ntohs(ptr noundef %69, i32 noundef %70)
  %72 = zext i16 %71 to i32
  %73 = load ptr, ptr %13, align 8
  store i32 %72, ptr %73, align 4
  %74 = load i32, ptr %9, align 4
  %75 = add i32 %74, 2
  store i32 %75, ptr %9, align 4
  br label %102

76:                                               ; preds = %51
  %77 = load ptr, ptr %8, align 8
  %78 = load i32, ptr %9, align 4
  %79 = call i32 @tvb_get_ntoh24(ptr noundef %77, i32 noundef %78)
  %80 = load ptr, ptr %13, align 8
  store i32 %79, ptr %80, align 4
  %81 = load i32, ptr %9, align 4
  %82 = add i32 %81, 3
  store i32 %82, ptr %9, align 4
  br label %102

83:                                               ; preds = %51
  %84 = load ptr, ptr %8, align 8
  %85 = load i32, ptr %9, align 4
  %86 = call i32 @tvb_get_ntohl(ptr noundef %84, i32 noundef %85)
  %87 = load ptr, ptr %13, align 8
  store i32 %86, ptr %87, align 4
  %88 = load i32, ptr %9, align 4
  %89 = add i32 %88, 4
  store i32 %89, ptr %9, align 4
  br label %102

90:                                               ; preds = %51
  %91 = load ptr, ptr %11, align 8
  %92 = load ptr, ptr %10, align 8
  %93 = getelementptr inbounds %struct._asn1_ctx_t, ptr %92, i32 0, i32 3
  %94 = load ptr, ptr %93, align 8
  %95 = load ptr, ptr %8, align 8
  %96 = load i32, ptr %9, align 4
  %97 = load i8, ptr %16, align 1
  %98 = zext i8 %97 to i32
  %99 = call ptr (ptr, ptr, ptr, ptr, i32, i32, ptr, ...) @proto_tree_add_expert_format(ptr noundef %91, ptr noundef %94, ptr noundef @ei_oer_not_decoded_yet, ptr noundef %95, i32 noundef %96, i32 noundef 1, ptr noundef @.str.43, i32 noundef %98)
  %100 = load ptr, ptr %8, align 8
  %101 = call i32 @tvb_reported_length(ptr noundef %100)
  store i32 %101, ptr %7, align 4
  br label %104

102:                                              ; preds = %83, %76, %68, %60
  %103 = load i32, ptr %9, align 4
  store i32 %103, ptr %7, align 4
  br label %104

104:                                              ; preds = %102, %90, %47
  %105 = load i32, ptr %7, align 4
  ret i32 %105
}