; Function Attrs: nounwind uwtable
define internal fastcc i32 @dissect_oer_length_determinant(ptr noundef %0, i32 noundef %1, ptr noundef readonly captures(none) %2, ptr noundef %3, i32 noundef %4, ptr noundef nonnull writeonly captures(none) initializes((0, 4)) %5) unnamed_addr #0 {
  store i32 0, ptr %5, align 4
  %7 = tail call zeroext i8 @tvb_get_guint8(ptr noundef %0, i32 noundef %1) #8
  %8 = icmp sgt i8 %7, -1
  br i1 %8, label %9, label %23

9:                                                ; preds = %6
  %10 = zext nneg i8 %7 to i32
  store i32 %10, ptr %5, align 4
  %11 = icmp sgt i32 %4, 0
  br i1 %11, label %12, label %proto_item_set_hidden.exit

12:                                               ; preds = %9
  %13 = tail call ptr @proto_tree_add_item(ptr noundef %3, i32 noundef %4, ptr noundef %0, i32 noundef %1, i32 noundef 1, i32 noundef 0) #8
  %14 = load i32, ptr @display_internal_oer_fields, align 4
  %.not = icmp ne i32 %14, 0
  %.not.i = icmp eq ptr %13, null
  %or.cond = select i1 %.not, i1 true, i1 %.not.i
  br i1 %or.cond, label %proto_item_set_hidden.exit, label %15

15:                                               ; preds = %12
  %16 = getelementptr inbounds nuw i8, ptr %13, i64 32
  %17 = load ptr, ptr %16, align 8
  %.not5.i = icmp eq ptr %17, null
  br i1 %.not5.i, label %proto_item_set_hidden.exit, label %18

18:                                               ; preds = %15
  %19 = getelementptr inbounds nuw i8, ptr %17, i64 28
  %20 = load i32, ptr %19, align 4
  %21 = or i32 %20, 1
  store i32 %21, ptr %19, align 4
  br label %proto_item_set_hidden.exit

proto_item_set_hidden.exit:                       ; preds = %18, %15, %12, %9
  %22 = add i32 %1, 1
  br label %46

23:                                               ; preds = %6
  %24 = add i32 %1, 1
  %25 = and i8 %7, 127
  switch i8 %25, label %40 [
    i8 1, label %26
    i8 2, label %30
    i8 3, label %34
    i8 4, label %37
  ]

26:                                               ; preds = %23
  %27 = tail call zeroext i8 @tvb_get_guint8(ptr noundef %0, i32 noundef %24) #8
  %28 = zext i8 %27 to i32
  store i32 %28, ptr %5, align 4
  %29 = add i32 %1, 2
  br label %46

30:                                               ; preds = %23
  %31 = tail call zeroext i16 @tvb_get_ntohs(ptr noundef %0, i32 noundef %24) #8
  %32 = zext i16 %31 to i32
  store i32 %32, ptr %5, align 4
  %33 = add i32 %1, 3
  br label %46

34:                                               ; preds = %23
  %35 = tail call i32 @tvb_get_ntoh24(ptr noundef %0, i32 noundef %24) #8
  store i32 %35, ptr %5, align 4
  %36 = add i32 %1, 4
  br label %46

37:                                               ; preds = %23
  %38 = tail call i32 @tvb_get_ntohl(ptr noundef %0, i32 noundef %24) #8
  store i32 %38, ptr %5, align 4
  %39 = add i32 %1, 5
  br label %46

40:                                               ; preds = %23
  %41 = zext nneg i8 %25 to i32
  %42 = getelementptr inbounds nuw i8, ptr %2, i64 16
  %43 = load ptr, ptr %42, align 8
  %44 = tail call ptr (ptr, ptr, ptr, ptr, i32, i32, ptr, ...) @proto_tree_add_expert_format(ptr noundef %3, ptr noundef %43, ptr noundef nonnull @ei_oer_not_decoded_yet, ptr noundef %0, i32 noundef %24, i32 noundef 1, ptr noundef nonnull @.str.43, i32 noundef %41) #8
  %45 = tail call i32 @tvb_reported_length(ptr noundef %0) #8
  br label %46

46:                                               ; preds = %26, %30, %34, %37, %40, %proto_item_set_hidden.exit
  %.0 = phi i32 [ %22, %proto_item_set_hidden.exit ], [ %45, %40 ], [ %39, %37 ], [ %36, %34 ], [ %33, %30 ], [ %29, %26 ]
  ret i32 %.0
}